; Function Attrs: nounwind uwtable
define dso_local noundef i32 @php_output_handler_alias_register(ptr noundef %0, i64 noundef %1, ptr noundef %2) local_unnamed_addr #0 {
  %4 = alloca %struct._zval_struct, align 8
  %5 = load ptr, ptr getelementptr inbounds nuw (i8, ptr @executor_globals, i64 1080), align 8, !tbaa !88
  %.not = icmp eq ptr %5, null
  br i1 %.not, label %6, label %7

6:                                                ; preds = %3
  tail call void (i32, ptr, ...) @zend_error_noreturn(i32 noundef 1, ptr noundef nonnull @.str.6) #26
  unreachable

7:                                                ; preds = %3
  %8 = load ptr, ptr @zend_string_init_interned, align 8, !tbaa !4
  %9 = tail call ptr %8(ptr noundef %0, i64 noundef %1, i1 noundef zeroext true) #22
  call void @llvm.lifetime.start.p0(i64 16, ptr nonnull %4) #22
  store ptr %2, ptr %4, align 8, !tbaa !8
  %10 = getelementptr inbounds nuw i8, ptr %4, i64 8
  store i32 13, ptr %10, align 8, !tbaa !8
  %11 = call ptr @zend_hash_update(ptr noundef nonnull @php_output_handler_aliases, ptr noundef %9, ptr noundef nonnull %4) #22
  call void @llvm.lifetime.end.p0(i64 16, ptr nonnull %4) #22
  %12 = getelementptr inbounds nuw i8, ptr %9, i64 4
  %13 = load i32, ptr %12, align 4, !tbaa !8
  %14 = and i32 %13, 64
  %.not.i = icmp eq i32 %14, 0
  br i1 %.not.i, label %15, label %zend_string_release_ex.exit

15:                                               ; preds = %7
  %16 = load i32, ptr %9, align 4, !tbaa !20
  %17 = icmp ne i32 %16, 0
  call void @llvm.assume(i1 %17)
  %18 = add i32 %16, -1
  store i32 %18, ptr %9, align 4, !tbaa !20
  %19 = icmp eq i32 %18, 0
  br i1 %19, label %20, label %zend_string_release_ex.exit

20:                                               ; preds = %15
  call void @free(ptr noundef nonnull %9) #22
  br label %zend_string_release_ex.exit

zend_string_release_ex.exit:                      ; preds = %7, %15, %20
  ret i32 0
}